target datalayout = "e-m:e-p270:32:32-p271:32:32-p272:64:64-i64:64-i128:128-f80:128-n8:16:32:64-S128"
target triple = "x86_64-pc-linux-gnu"

; Function Attrs: mustprogress uwtable
define noundef ptr @_ZNK32pxrInternal_v0_24__pxrReserved__13SdfFileFormat20_InstantiateNewLayerERKNS_9TfWeakPtrIKS0_EERKNSt7__cxx1112basic_stringIcSt11char_traitsIcESaIcEEESD_RKNS_11ArAssetInfoERKSt3mapISB_SB_St4lessISB_ESaISt4pairISC_SB_EEE(ptr noundef nonnull align 8 dereferenceable(113) %0, ptr noundef nonnull align 8 dereferenceable(16) %1, ptr noundef nonnull align 8 dereferenceable(32) %2, ptr noundef nonnull align 8 dereferenceable(32) %3, ptr noundef nonnull align 8 dereferenceable(112) %4, ptr noundef nonnull align 8 dereferenceable(48) %5) unnamed_addr #0 align 2 personality ptr @__gxx_personality_v0 {
  %7 = alloca ptr, align 8
  %8 = alloca ptr, align 8
  %9 = alloca ptr, align 8
  %10 = alloca ptr, align 8
  %11 = alloca ptr, align 8
  %12 = alloca ptr, align 8
  %13 = alloca ptr, align 8
  %14 = alloca i32, align 4
  store ptr %0, ptr %7, align 8
  store ptr %1, ptr %8, align 8
  store ptr %2, ptr %9, align 8
  store ptr %3, ptr %10, align 8
  store ptr %4, ptr %11, align 8
  store ptr %5, ptr %12, align 8
  %15 = call noalias noundef nonnull ptr @_Znwm(i64 noundef 560) #15
  %16 = load ptr, ptr %8, align 8
  %17 = load ptr, ptr %9, align 8
  %18 = load ptr, ptr %10, align 8
  %19 = load ptr, ptr %11, align 8
  %20 = load ptr, ptr %12, align 8
  invoke void @_ZN32pxrInternal_v0_24__pxrReserved__8SdfLayerC1ERKNS_9TfWeakPtrIKNS_13SdfFileFormatEEERKNSt7__cxx1112basic_stringIcSt11char_traitsIcESaIcEEESE_RKNS_11ArAssetInfoERKSt3mapISC_SC_St4lessISC_ESaISt4pairISD_SC_EEEb(ptr noundef nonnull align 8 dereferenceable(557) %15, ptr noundef nonnull align 8 dereferenceable(16) %16, ptr noundef nonnull align 8 dereferenceable(32) %17, ptr noundef nonnull align 8 dereferenceable(32) %18, ptr noundef nonnull align 8 dereferenceable(112) %19, ptr noundef nonnull align 8 dereferenceable(48) %20, i1 noundef zeroext false)
          to label %21 unwind label %22

21:                                               ; preds = %6
  ret ptr %15

22:                                               ; preds = %6
  %23 = landingpad { ptr, i32 }
          cleanup
  %24 = extractvalue { ptr, i32 } %23, 0
  store ptr %24, ptr %13, align 8
  %25 = extractvalue { ptr, i32 } %23, 1
  store i32 %25, ptr %14, align 4
  call void @_ZdlPvm(ptr noundef %15, i64 noundef 560) #16
  br label %26

26:                                               ; preds = %22
  %27 = load ptr, ptr %13, align 8
  %28 = load i32, ptr %14, align 4
  %29 = insertvalue { ptr, i32 } poison, ptr %27, 0
  %30 = insertvalue { ptr, i32 } %29, i32 %28, 1
  resume { ptr, i32 } %30
}