; Function Attrs: mustprogress uwtable
define noundef nonnull ptr @_ZNK32pxrInternal_v0_24__pxrReserved__13SdfFileFormat20_InstantiateNewLayerERKNS_9TfWeakPtrIKS0_EERKNSt7__cxx1112basic_stringIcSt11char_traitsIcESaIcEEESD_RKNS_11ArAssetInfoERKSt3mapISB_SB_St4lessISB_ESaISt4pairISC_SB_EEE(ptr nocapture nonnull readnone align 8 %0, ptr noundef nonnull align 8 dereferenceable(16) %1, ptr noundef nonnull align 8 dereferenceable(32) %2, ptr noundef nonnull align 8 dereferenceable(32) %3, ptr noundef nonnull align 8 dereferenceable(112) %4, ptr noundef nonnull align 8 dereferenceable(48) %5) unnamed_addr #0 align 2 personality ptr @__gxx_personality_v0 {
  %7 = tail call noalias noundef nonnull dereferenceable(560) ptr @_Znwm(i64 noundef 560) #23
  invoke void @_ZN32pxrInternal_v0_24__pxrReserved__8SdfLayerC1ERKNS_9TfWeakPtrIKNS_13SdfFileFormatEEERKNSt7__cxx1112basic_stringIcSt11char_traitsIcESaIcEEESE_RKNS_11ArAssetInfoERKSt3mapISC_SC_St4lessISC_ESaISt4pairISD_SC_EEEb(ptr noundef nonnull align 8 dereferenceable(557) %7, ptr noundef nonnull align 8 dereferenceable(16) %1, ptr noundef nonnull align 8 dereferenceable(32) %2, ptr noundef nonnull align 8 dereferenceable(32) %3, ptr noundef nonnull align 8 dereferenceable(112) %4, ptr noundef nonnull align 8 dereferenceable(48) %5, i1 noundef zeroext false)
          to label %8 unwind label %9

8:                                                ; preds = %6
  ret ptr %7

9:                                                ; preds = %6
  %10 = landingpad { ptr, i32 }
          cleanup
  tail call void @_ZdlPvm(ptr noundef nonnull %7, i64 noundef 560) #22
  resume { ptr, i32 } %10
}